; Function Attrs: mustprogress nofree nounwind willreturn memory(read, inaccessiblemem: none) uwtable
define internal range(i32 -1, 2) i32 @cookie_sort(ptr noundef readonly captures(none) %0, ptr noundef readonly captures(none) %1) #6 {
  %3 = load ptr, ptr %0, align 8, !tbaa !122
  %4 = load ptr, ptr %1, align 8, !tbaa !122
  %5 = getelementptr inbounds nuw i8, ptr %3, i64 80
  %6 = load ptr, ptr %5, align 8, !tbaa !108
  %.not = icmp eq ptr %6, null
  br i1 %.not, label %9, label %7

7:                                                ; preds = %2
  %8 = tail call i64 @strlen(ptr noundef nonnull dereferenceable(1) %6) #14
  br label %9

9:                                                ; preds = %2, %7
  %10 = phi i64 [ %8, %7 ], [ 0, %2 ]
  %11 = getelementptr inbounds nuw i8, ptr %4, i64 80
  %12 = load ptr, ptr %11, align 8, !tbaa !108
  %.not40 = icmp eq ptr %12, null
  br i1 %.not40, label %15, label %13

13:                                               ; preds = %9
  %14 = tail call i64 @strlen(ptr noundef nonnull dereferenceable(1) %12) #14
  br label %15

15:                                               ; preds = %9, %13
  %16 = phi i64 [ %14, %13 ], [ 0, %9 ]
  %.not41 = icmp eq i64 %10, %16
  br i1 %.not41, label %19, label %17

17:                                               ; preds = %15
  %18 = icmp ugt i64 %16, %10
  br label %55

19:                                               ; preds = %15
  %20 = getelementptr inbounds nuw i8, ptr %3, i64 96
  %21 = load ptr, ptr %20, align 8, !tbaa !111
  %.not42 = icmp eq ptr %21, null
  br i1 %.not42, label %24, label %22

22:                                               ; preds = %19
  %23 = tail call i64 @strlen(ptr noundef nonnull dereferenceable(1) %21) #14
  br label %24

24:                                               ; preds = %19, %22
  %25 = phi i64 [ %23, %22 ], [ 0, %19 ]
  %26 = getelementptr inbounds nuw i8, ptr %4, i64 96
  %27 = load ptr, ptr %26, align 8, !tbaa !111
  %.not43 = icmp eq ptr %27, null
  br i1 %.not43, label %30, label %28

28:                                               ; preds = %24
  %29 = tail call i64 @strlen(ptr noundef nonnull dereferenceable(1) %27) #14
  br label %30

30:                                               ; preds = %24, %28
  %31 = phi i64 [ %29, %28 ], [ 0, %24 ]
  %.not44 = icmp eq i64 %25, %31
  br i1 %.not44, label %34, label %32

32:                                               ; preds = %30
  %33 = icmp ugt i64 %31, %25
  br label %55

34:                                               ; preds = %30
  %35 = getelementptr inbounds nuw i8, ptr %3, i64 64
  %36 = load ptr, ptr %35, align 8, !tbaa !102
  %.not45 = icmp eq ptr %36, null
  br i1 %.not45, label %39, label %37

37:                                               ; preds = %34
  %38 = tail call i64 @strlen(ptr noundef nonnull dereferenceable(1) %36) #14
  br label %39

39:                                               ; preds = %34, %37
  %40 = phi i64 [ %38, %37 ], [ 0, %34 ]
  %41 = getelementptr inbounds nuw i8, ptr %4, i64 64
  %42 = load ptr, ptr %41, align 8, !tbaa !102
  %.not46 = icmp eq ptr %42, null
  br i1 %.not46, label %45, label %43

43:                                               ; preds = %39
  %44 = tail call i64 @strlen(ptr noundef nonnull dereferenceable(1) %42) #14
  br label %45

45:                                               ; preds = %39, %43
  %46 = phi i64 [ %44, %43 ], [ 0, %39 ]
  %.not47 = icmp eq i64 %40, %46
  br i1 %.not47, label %49, label %47

47:                                               ; preds = %45
  %48 = icmp ugt i64 %46, %40
  br label %55

49:                                               ; preds = %45
  %50 = getelementptr inbounds nuw i8, ptr %4, i64 112
  %51 = load i32, ptr %50, align 8, !tbaa !115
  %52 = getelementptr inbounds nuw i8, ptr %3, i64 112
  %53 = load i32, ptr %52, align 8, !tbaa !115
  %54 = icmp sgt i32 %51, %53
  br label %55

55:                                               ; preds = %49, %47, %32, %17
  %.sink = phi i1 [ %54, %49 ], [ %48, %47 ], [ %33, %32 ], [ %18, %17 ]
  %56 = select i1 %.sink, i32 1, i32 -1
  ret i32 %56
}